target datalayout = "e-m:e-p270:32:32-p271:32:32-p272:64:64-i64:64-i128:128-f80:128-n8:16:32:64-S128"
target triple = "x86_64-pc-linux-gnu"

%"class.pxrInternal_v0_24__pxrReserved__::Hf_PluginEntry" = type <{ %"class.pxrInternal_v0_24__pxrReserved__::TfType", %"class.std::__cxx11::basic_string", i32, [4 x i8], ptr, i32, [4 x i8] }>
%"class.pxrInternal_v0_24__pxrReserved__::TfType" = type { ptr }
%"class.std::__cxx11::basic_string" = type { %"struct.std::__cxx11::basic_string<char>::_Alloc_hider", i64, %union.anon }
%"struct.std::__cxx11::basic_string<char>::_Alloc_hider" = type { ptr }
%union.anon = type { i64, [8 x i8] }
%"class.pxrInternal_v0_24__pxrReserved__::TfCallContext" = type <{ ptr, ptr, i64, ptr, i8, [7 x i8] }>

@.str = private unnamed_addr constant [124 x i8] c"generated/home/dtcxzyw/WorkSpace/Projects/compilers/llvm-opt-benchmark/bench/openusd/OpenUSD/pxr/imaging/hf/pluginEntry.cpp\00", align 1
@__func__._ZN32pxrInternal_v0_24__pxrReserved__14Hf_PluginEntry11DecRefCountEv = private unnamed_addr constant [12 x i8] c"DecRefCount\00", align 1
@__PRETTY_FUNCTION__._ZN32pxrInternal_v0_24__pxrReserved__14Hf_PluginEntry11DecRefCountEv = private unnamed_addr constant [69 x i8] c"void pxrInternal_v0_24__pxrReserved__::Hf_PluginEntry::DecRefCount()\00", align 1
@.str.3 = private unnamed_addr constant [14 x i8] c"_refCount > 0\00", align 1

; Function Attrs: mustprogress nounwind uwtable
define linkonce_odr noundef ptr @_ZN32pxrInternal_v0_24__pxrReserved__21Tf_VerifyStringFormatEv() #3 comdat {
  ret ptr null
}

; Function Attrs: mustprogress nounwind uwtable
define linkonce_odr void @_ZN32pxrInternal_v0_24__pxrReserved__13TfCallContextC2EPKcS2_mS2_(ptr noundef nonnull align 8 dereferenceable(33) %0, ptr noundef %1, ptr noundef %2, i64 noundef %3, ptr noundef %4) unnamed_addr #3 comdat align 2 {
  %6 = alloca ptr, align 8
  %7 = alloca ptr, align 8
  %8 = alloca ptr, align 8
  %9 = alloca i64, align 8
  %10 = alloca ptr, align 8
  store ptr %0, ptr %6, align 8
  store ptr %1, ptr %7, align 8
  store ptr %2, ptr %8, align 8
  store i64 %3, ptr %9, align 8
  store ptr %4, ptr %10, align 8
  %11 = load ptr, ptr %6, align 8
  %12 = getelementptr inbounds nuw %"class.pxrInternal_v0_24__pxrReserved__::TfCallContext", ptr %11, i32 0, i32 0
  %13 = load ptr, ptr %7, align 8
  store ptr %13, ptr %12, align 8
  %14 = getelementptr inbounds nuw %"class.pxrInternal_v0_24__pxrReserved__::TfCallContext", ptr %11, i32 0, i32 1
  %15 = load ptr, ptr %8, align 8
  store ptr %15, ptr %14, align 8
  %16 = getelementptr inbounds nuw %"class.pxrInternal_v0_24__pxrReserved__::TfCallContext", ptr %11, i32 0, i32 2
  %17 = load i64, ptr %9, align 8
  store i64 %17, ptr %16, align 8
  %18 = getelementptr inbounds nuw %"class.pxrInternal_v0_24__pxrReserved__::TfCallContext", ptr %11, i32 0, i32 3
  %19 = load ptr, ptr %10, align 8
  store ptr %19, ptr %18, align 8
  %20 = getelementptr inbounds nuw %"class.pxrInternal_v0_24__pxrReserved__::TfCallContext", ptr %11, i32 0, i32 4
  store i8 0, ptr %20, align 8
  ret void
}

; Function Attrs: mustprogress uwtable
define void @_ZN32pxrInternal_v0_24__pxrReserved__14Hf_PluginEntry11DecRefCountEv(ptr noundef nonnull align 8 dereferenceable(64) %0) #0 align 2 {
  %2 = alloca ptr, align 8
  %3 = alloca %"class.pxrInternal_v0_24__pxrReserved__::TfCallContext", align 8
  store ptr %0, ptr %2, align 8
  %4 = load ptr, ptr %2, align 8
  %5 = getelementptr inbounds nuw %"class.pxrInternal_v0_24__pxrReserved__::Hf_PluginEntry", ptr %4, i32 0, i32 5
  %6 = load i32, ptr %5, align 8
  %7 = icmp sgt i32 %6, 0
  br i1 %7, label %8, label %9

8:                                                ; preds = %1
  br label %12

9:                                                ; preds = %1
  call void @_ZN32pxrInternal_v0_24__pxrReserved__13TfCallContextC2EPKcS2_mS2_(ptr noundef nonnull align 8 dereferenceable(33) %3, ptr noundef @.str, ptr noundef @__func__._ZN32pxrInternal_v0_24__pxrReserved__14Hf_PluginEntry11DecRefCountEv, i64 noundef 93, ptr noundef @__PRETTY_FUNCTION__._ZN32pxrInternal_v0_24__pxrReserved__14Hf_PluginEntry11DecRefCountEv)
  %10 = call noundef ptr @_ZN32pxrInternal_v0_24__pxrReserved__21Tf_VerifyStringFormatEv()
  %11 = call noundef zeroext i1 @_ZN32pxrInternal_v0_24__pxrReserved__21Tf_FailedVerifyHelperERKNS_13TfCallContextEPKcS4_(ptr noundef nonnull align 8 dereferenceable(33) %3, ptr noundef @.str.3, ptr noundef %10)
  br label %12

12:                                               ; preds = %9, %8
  %13 = phi i1 [ true, %8 ], [ %11, %9 ]
  %14 = xor i1 %13, true
  br i1 %14, label %15, label %17

15:                                               ; preds = %12
  %16 = getelementptr inbounds nuw %"class.pxrInternal_v0_24__pxrReserved__::Hf_PluginEntry", ptr %4, i32 0, i32 5
  store i32 0, ptr %16, align 8
  br label %34

17:                                               ; preds = %12
  %18 = getelementptr inbounds nuw %"class.pxrInternal_v0_24__pxrReserved__::Hf_PluginEntry", ptr %4, i32 0, i32 5
  %19 = load i32, ptr %18, align 8
  %20 = add nsw i32 %19, -1
  store i32 %20, ptr %18, align 8
  %21 = getelementptr inbounds nuw %"class.pxrInternal_v0_24__pxrReserved__::Hf_PluginEntry", ptr %4, i32 0, i32 5
  %22 = load i32, ptr %21, align 8
  %23 = icmp eq i32 %22, 0
  br i1 %23, label %24, label %34

24:                                               ; preds = %17
  %25 = getelementptr inbounds nuw %"class.pxrInternal_v0_24__pxrReserved__::Hf_PluginEntry", ptr %4, i32 0, i32 4
  %26 = load ptr, ptr %25, align 8
  %27 = icmp eq ptr %26, null
  br i1 %27, label %32, label %28

28:                                               ; preds = %24
  %29 = load ptr, ptr %26, align 8
  %30 = getelementptr inbounds ptr, ptr %29, i64 1
  %31 = load ptr, ptr %30, align 8
  call void %31(ptr noundef nonnull align 8 dereferenceable(8) %26) #11
  br label %32

32:                                               ; preds = %28, %24
  %33 = getelementptr inbounds nuw %"class.pxrInternal_v0_24__pxrReserved__::Hf_PluginEntry", ptr %4, i32 0, i32 4
  store ptr null, ptr %33, align 8
  br label %34

34:                                               ; preds = %32, %17, %15
  ret void
}