; Function Attrs: mustprogress uwtable
define void @_ZN32pxrInternal_v0_24__pxrReserved__14Hf_PluginEntry11DecRefCountEv(ptr nocapture noundef nonnull align 8 dereferenceable(64) %0) local_unnamed_addr #0 align 2 {
  %2 = alloca %"class.pxrInternal_v0_24__pxrReserved__::TfCallContext", align 8
  %3 = getelementptr inbounds nuw i8, ptr %0, i64 56
  %4 = load i32, ptr %3, align 8
  %5 = icmp sgt i32 %4, 0
  br i1 %5, label %.critedge, label %6

6:                                                ; preds = %1
  store ptr @.str, ptr %2, align 8
  %7 = getelementptr inbounds nuw i8, ptr %2, i64 8
  store ptr @__func__._ZN32pxrInternal_v0_24__pxrReserved__14Hf_PluginEntry11DecRefCountEv, ptr %7, align 8
  %8 = getelementptr inbounds nuw i8, ptr %2, i64 16
  store i64 93, ptr %8, align 8
  %9 = getelementptr inbounds nuw i8, ptr %2, i64 24
  store ptr @__PRETTY_FUNCTION__._ZN32pxrInternal_v0_24__pxrReserved__14Hf_PluginEntry11DecRefCountEv, ptr %9, align 8
  %10 = getelementptr inbounds nuw i8, ptr %2, i64 32
  store i8 0, ptr %10, align 8
  %11 = call noundef zeroext i1 @_ZN32pxrInternal_v0_24__pxrReserved__21Tf_FailedVerifyHelperERKNS_13TfCallContextEPKcS4_(ptr noundef nonnull align 8 dereferenceable(33) %2, ptr noundef nonnull @.str.3, ptr noundef null)
  br i1 %11, label %..critedge_crit_edge, label %12

..critedge_crit_edge:                             ; preds = %6
  %.pre = load i32, ptr %3, align 8
  br label %.critedge

12:                                               ; preds = %6
  store i32 0, ptr %3, align 8
  br label %25

.critedge:                                        ; preds = %..critedge_crit_edge, %1
  %13 = phi i32 [ %.pre, %..critedge_crit_edge ], [ %4, %1 ]
  %14 = add nsw i32 %13, -1
  store i32 %14, ptr %3, align 8
  %15 = icmp eq i32 %14, 0
  br i1 %15, label %16, label %25

16:                                               ; preds = %.critedge
  %17 = getelementptr inbounds nuw i8, ptr %0, i64 48
  %18 = load ptr, ptr %17, align 8
  %19 = icmp eq ptr %18, null
  br i1 %19, label %24, label %20

20:                                               ; preds = %16
  %21 = load ptr, ptr %18, align 8
  %22 = getelementptr inbounds i8, ptr %21, i64 8
  %23 = load ptr, ptr %22, align 8
  call void %23(ptr noundef nonnull align 8 dereferenceable(8) %18) #11
  br label %24

24:                                               ; preds = %20, %16
  store ptr null, ptr %17, align 8
  br label %25

25:                                               ; preds = %24, %.critedge, %12
  ret void
}